target datalayout = "e-m:e-p270:32:32-p271:32:32-p272:64:64-i64:64-i128:128-f80:128-n8:16:32:64-S128"
target triple = "x86_64-pc-linux-gnu"

%"class.std::shared_ptr" = type { %"class.std::__shared_ptr" }
%"class.std::__shared_ptr" = type { ptr, %"class.std::__shared_count" }
%"class.std::__shared_count" = type { ptr }
%"class.open_spiel::twenty_forty_eight::TwentyFortyEightState" = type { %"class.open_spiel::State.base", ptr, i32, %"class.std::vector.9", i8, i32, i32, i32 }
%"class.open_spiel::State.base" = type <{ ptr, %"class.std::shared_ptr", i32, i32, %"class.std::vector", i32 }>
%"class.std::vector" = type { %"struct.std::_Vector_base" }
%"struct.std::_Vector_base" = type { %"struct.std::_Vector_base<open_spiel::State::PlayerAction, std::allocator<open_spiel::State::PlayerAction>>::_Vector_impl" }
%"struct.std::_Vector_base<open_spiel::State::PlayerAction, std::allocator<open_spiel::State::PlayerAction>>::_Vector_impl" = type { %"struct.std::_Vector_base<open_spiel::State::PlayerAction, std::allocator<open_spiel::State::PlayerAction>>::_Vector_impl_data" }
%"struct.std::_Vector_base<open_spiel::State::PlayerAction, std::allocator<open_spiel::State::PlayerAction>>::_Vector_impl_data" = type { ptr, ptr, ptr }
%"class.std::vector.9" = type { %"struct.std::_Vector_base.10" }
%"struct.std::_Vector_base.10" = type { %"struct.std::_Vector_base<open_spiel::twenty_forty_eight::Tile, std::allocator<open_spiel::twenty_forty_eight::Tile>>::_Vector_impl" }
%"struct.std::_Vector_base<open_spiel::twenty_forty_eight::Tile, std::allocator<open_spiel::twenty_forty_eight::Tile>>::_Vector_impl" = type { %"struct.std::_Vector_base<open_spiel::twenty_forty_eight::Tile, std::allocator<open_spiel::twenty_forty_eight::Tile>>::_Vector_impl_data" }
%"struct.std::_Vector_base<open_spiel::twenty_forty_eight::Tile, std::allocator<open_spiel::twenty_forty_eight::Tile>>::_Vector_impl_data" = type { ptr, ptr, ptr }
%"struct.open_spiel::twenty_forty_eight::Tile" = type <{ i32, i8, [3 x i8] }>

; Function Attrs: mustprogress nounwind uwtable
define linkonce_odr noundef nonnull align 4 dereferenceable(5) ptr @_ZNSt6vectorIN10open_spiel18twenty_forty_eight4TileESaIS2_EEixEm(ptr noundef nonnull align 8 dereferenceable(24) %0, i64 noundef %1) #5 comdat align 2 {
  %3 = alloca ptr, align 8
  %4 = alloca i64, align 8
  store ptr %0, ptr %3, align 8
  store i64 %1, ptr %4, align 8
  %5 = load ptr, ptr %3, align 8
  %6 = getelementptr inbounds nuw %"struct.std::_Vector_base.10", ptr %5, i32 0, i32 0
  %7 = getelementptr inbounds nuw %"struct.std::_Vector_base<open_spiel::twenty_forty_eight::Tile, std::allocator<open_spiel::twenty_forty_eight::Tile>>::_Vector_impl_data", ptr %6, i32 0, i32 0
  %8 = load ptr, ptr %7, align 8
  %9 = load i64, ptr %4, align 8
  %10 = getelementptr inbounds %"struct.open_spiel::twenty_forty_eight::Tile", ptr %8, i64 %9
  ret ptr %10
}

; Function Attrs: mustprogress nounwind uwtable
define linkonce_odr void @_ZN10open_spiel18twenty_forty_eight21TwentyFortyEightState15SetTileIsMergedEiib(ptr noundef nonnull align 8 dereferenceable(120) %0, i32 noundef %1, i32 noundef %2, i1 noundef zeroext %3) #5 comdat align 2 {
  %5 = alloca ptr, align 8
  %6 = alloca i32, align 4
  %7 = alloca i32, align 4
  %8 = alloca i8, align 1
  store ptr %0, ptr %5, align 8
  store i32 %1, ptr %6, align 4
  store i32 %2, ptr %7, align 4
  %9 = zext i1 %3 to i8
  store i8 %9, ptr %8, align 1
  %10 = load ptr, ptr %5, align 8
  %11 = load i8, ptr %8, align 1
  %12 = trunc i8 %11 to i1
  %13 = getelementptr inbounds nuw %"class.open_spiel::twenty_forty_eight::TwentyFortyEightState", ptr %10, i32 0, i32 3
  %14 = load i32, ptr %6, align 4
  %15 = mul nsw i32 %14, 4
  %16 = load i32, ptr %7, align 4
  %17 = add nsw i32 %15, %16
  %18 = sext i32 %17 to i64
  %19 = call noundef nonnull align 4 dereferenceable(5) ptr @_ZNSt6vectorIN10open_spiel18twenty_forty_eight4TileESaIS2_EEixEm(ptr noundef nonnull align 8 dereferenceable(24) %13, i64 noundef %18) #3
  %20 = getelementptr inbounds nuw %"struct.open_spiel::twenty_forty_eight::Tile", ptr %19, i32 0, i32 1
  %21 = zext i1 %12 to i8
  store i8 %21, ptr %20, align 4
  ret void
}

; Function Attrs: mustprogress uwtable
define void @_ZN10open_spiel18twenty_forty_eight21TwentyFortyEightState12PrepareTilesEv(ptr noundef nonnull align 8 dereferenceable(120) %0) #4 align 2 {
  %2 = alloca ptr, align 8
  %3 = alloca i32, align 4
  %4 = alloca i32, align 4
  store ptr %0, ptr %2, align 8
  %5 = load ptr, ptr %2, align 8
  store i32 0, ptr %3, align 4
  br label %6

6:                                                ; preds = %20, %1
  %7 = load i32, ptr %3, align 4
  %8 = icmp slt i32 %7, 4
  br i1 %8, label %9, label %23

9:                                                ; preds = %6
  store i32 0, ptr %4, align 4
  br label %10

10:                                               ; preds = %16, %9
  %11 = load i32, ptr %4, align 4
  %12 = icmp slt i32 %11, 4
  br i1 %12, label %13, label %19

13:                                               ; preds = %10
  %14 = load i32, ptr %3, align 4
  %15 = load i32, ptr %4, align 4
  call void @_ZN10open_spiel18twenty_forty_eight21TwentyFortyEightState15SetTileIsMergedEiib(ptr noundef nonnull align 8 dereferenceable(120) %5, i32 noundef %14, i32 noundef %15, i1 noundef zeroext false)
  br label %16

16:                                               ; preds = %13
  %17 = load i32, ptr %4, align 4
  %18 = add nsw i32 %17, 1
  store i32 %18, ptr %4, align 4
  br label %10, !llvm.loop !10

19:                                               ; preds = %10
  br label %20

20:                                               ; preds = %19
  %21 = load i32, ptr %3, align 4
  %22 = add nsw i32 %21, 1
  store i32 %22, ptr %3, align 4
  br label %6, !llvm.loop !11

23:                                               ; preds = %6
  ret void
}