; Function Attrs: mustprogress nofree norecurse nosync nounwind memory(write, argmem: readwrite, inaccessiblemem: none) uwtable
define void @_ZN10open_spiel18twenty_forty_eight21TwentyFortyEightState12PrepareTilesEv(ptr noundef nonnull readonly align 8 captures(none) dereferenceable(120) %0) local_unnamed_addr #8 align 2 {
  %2 = getelementptr inbounds nuw i8, ptr %0, i64 80
  br label %.preheader

.preheader:                                       ; preds = %1, %8
  %indvars.iv10 = phi i64 [ 0, %1 ], [ %indvars.iv.next11, %8 ]
  %3 = shl nuw nsw i64 %indvars.iv10, 2
  br label %4

4:                                                ; preds = %.preheader, %4
  %indvars.iv = phi i64 [ 0, %.preheader ], [ %indvars.iv.next, %4 ]
  %5 = add nuw nsw i64 %indvars.iv, %3
  %6 = load ptr, ptr %2, align 8
  %7 = getelementptr inbounds nuw %"struct.open_spiel::twenty_forty_eight::Tile", ptr %6, i64 %5, i32 1
  store i8 0, ptr %7, align 4
  %indvars.iv.next = add nuw nsw i64 %indvars.iv, 1
  %exitcond.not = icmp eq i64 %indvars.iv.next, 4
  br i1 %exitcond.not, label %8, label %4, !llvm.loop !11

8:                                                ; preds = %4
  %indvars.iv.next11 = add nuw nsw i64 %indvars.iv10, 1
  %exitcond13.not = icmp eq i64 %indvars.iv.next11, 4
  br i1 %exitcond13.not, label %9, label %.preheader, !llvm.loop !12

9:                                                ; preds = %8
  ret void
}